; Function Attrs: nounwind uwtable
define internal void @abc_data_dealloc(ptr noundef %0) #0 {
  tail call void @PyObject_GC_UnTrack(ptr noundef %0) #4
  %2 = getelementptr i8, ptr %0, i64 8
  %.val = load ptr, ptr %2, align 8, !tbaa !25
  %3 = getelementptr inbounds nuw i8, ptr %0, i64 16
  %4 = load ptr, ptr %3, align 8, !tbaa !24
  %.not.i6 = icmp eq ptr %4, null
  br i1 %.not.i6, label %Py_DECREF.exit23.i, label %5

5:                                                ; preds = %1
  store ptr null, ptr %3, align 8, !tbaa !24
  %6 = load i32, ptr %4, align 8, !tbaa !17
  %.not.i22.i = icmp sgt i32 %6, -1
  br i1 %.not.i22.i, label %7, label %Py_DECREF.exit23.i

7:                                                ; preds = %5
  %8 = add nsw i32 %6, -1
  store i32 %8, ptr %4, align 8, !tbaa !17
  %9 = icmp eq i32 %8, 0
  br i1 %9, label %10, label %Py_DECREF.exit23.i

10:                                               ; preds = %7
  tail call void @_Py_Dealloc(ptr noundef nonnull %4) #4
  br label %Py_DECREF.exit23.i

Py_DECREF.exit23.i:                               ; preds = %10, %7, %5, %1
  %11 = getelementptr inbounds nuw i8, ptr %0, i64 24
  %12 = load ptr, ptr %11, align 8, !tbaa !24
  %.not18.i = icmp eq ptr %12, null
  br i1 %.not18.i, label %Py_DECREF.exit21.i, label %13

13:                                               ; preds = %Py_DECREF.exit23.i
  store ptr null, ptr %11, align 8, !tbaa !24
  %14 = load i32, ptr %12, align 8, !tbaa !17
  %.not.i20.i = icmp sgt i32 %14, -1
  br i1 %.not.i20.i, label %15, label %Py_DECREF.exit21.i

15:                                               ; preds = %13
  %16 = add nsw i32 %14, -1
  store i32 %16, ptr %12, align 8, !tbaa !17
  %17 = icmp eq i32 %16, 0
  br i1 %17, label %18, label %Py_DECREF.exit21.i

18:                                               ; preds = %15
  tail call void @_Py_Dealloc(ptr noundef nonnull %12) #4
  br label %Py_DECREF.exit21.i

Py_DECREF.exit21.i:                               ; preds = %18, %15, %13, %Py_DECREF.exit23.i
  %19 = getelementptr inbounds nuw i8, ptr %0, i64 32
  %20 = load ptr, ptr %19, align 8, !tbaa !24
  %.not19.i = icmp eq ptr %20, null
  br i1 %.not19.i, label %abc_data_clear.exit, label %21

21:                                               ; preds = %Py_DECREF.exit21.i
  store ptr null, ptr %19, align 8, !tbaa !24
  %22 = load i32, ptr %20, align 8, !tbaa !17
  %.not.i.i = icmp sgt i32 %22, -1
  br i1 %.not.i.i, label %23, label %abc_data_clear.exit

23:                                               ; preds = %21
  %24 = add nsw i32 %22, -1
  store i32 %24, ptr %20, align 8, !tbaa !17
  %25 = icmp eq i32 %24, 0
  br i1 %25, label %26, label %abc_data_clear.exit

26:                                               ; preds = %23
  tail call void @_Py_Dealloc(ptr noundef nonnull %20) #4
  br label %abc_data_clear.exit

abc_data_clear.exit:                              ; preds = %Py_DECREF.exit21.i, %21, %23, %26
  %27 = getelementptr inbounds nuw i8, ptr %.val, i64 320
  %28 = load ptr, ptr %27, align 8, !tbaa !61
  tail call void %28(ptr noundef nonnull %0) #4
  %29 = load i32, ptr %.val, align 8, !tbaa !17
  %.not.i = icmp sgt i32 %29, -1
  br i1 %.not.i, label %30, label %Py_DECREF.exit

30:                                               ; preds = %abc_data_clear.exit
  %31 = add nsw i32 %29, -1
  store i32 %31, ptr %.val, align 8, !tbaa !17
  %32 = icmp eq i32 %31, 0
  br i1 %32, label %33, label %Py_DECREF.exit

33:                                               ; preds = %30
  tail call void @_Py_Dealloc(ptr noundef nonnull %.val) #4
  br label %Py_DECREF.exit

Py_DECREF.exit:                                   ; preds = %abc_data_clear.exit, %30, %33
  ret void
}